target datalayout = "e-m:e-p270:32:32-p271:32:32-p272:64:64-i64:64-i128:128-f80:128-n8:16:32:64-S128"
target triple = "x86_64-pc-linux-gnu"

%struct.ForEachState = type { ptr, i32 }
%union.ListCell = type { ptr }
%struct.Query = type { i32, i32, i32, i64, i8, ptr, i32, i8, i8, i8, i8, i8, i8, i8, i8, i8, i8, i8, ptr, ptr, ptr, ptr, ptr, i32, ptr, ptr, i32, ptr, ptr, ptr, ptr, ptr, i8, ptr, ptr, ptr, ptr, ptr, ptr, ptr, i32, ptr, ptr, ptr, ptr, i32, i32 }
%struct.List = type { i32, i32, i32, ptr, [0 x %union.ListCell] }
%struct.RangeTblEntry = type { i32, ptr, ptr, i32, i32, i8, i8, i32, i32, ptr, ptr, i8, i32, i32, ptr, ptr, ptr, ptr, ptr, i8, ptr, ptr, ptr, i32, i8, ptr, ptr, ptr, ptr, double, ptr, i8, i8, ptr }
%struct.RangeTblRef = type { i32, i32 }
%struct.FromExpr = type { i32, ptr, ptr }
%struct.Node = type { i32 }
%struct.JoinExpr = type { i32, i32, i8, ptr, ptr, ptr, ptr, ptr, ptr, i32 }
%struct.PlannerInfo = type { i32, ptr, ptr, i32, ptr, ptr, ptr, ptr, i32, ptr, ptr, ptr, ptr, ptr, ptr, ptr, ptr, i32, ptr, ptr, ptr, ptr, ptr, i8, ptr, ptr, ptr, ptr, ptr, i32, ptr, ptr, ptr, ptr, ptr, ptr, ptr, i32, ptr, ptr, ptr, i32, ptr, ptr, ptr, ptr, ptr, ptr, [8 x ptr], [8 x ptr], ptr, ptr, ptr, ptr, ptr, ptr, ptr, double, double, double, i32, i8, i8, i8, i8, i8, i8, i8, i32, ptr, ptr, i32, i8, i8, i32, ptr, ptr, ptr, ptr, ptr, ptr, i8, ptr }
%struct.pullup_replace_vars_context = type { ptr, ptr, ptr, ptr, ptr, ptr, i32, i8, ptr }

@.str.2 = private unnamed_addr constant [15 x i8] c"prepjointree.c\00", align 1
@.str.5 = private unnamed_addr constant [27 x i8] c"unrecognized node type: %d\00", align 1
@__func__.replace_vars_in_jointree = private unnamed_addr constant [25 x i8] c"replace_vars_in_jointree\00", align 1

; Function Attrs: inlinehint nounwind uwtable
define internal ptr @list_nth_cell(ptr noundef %0, i32 noundef %1) #3 {
  %3 = alloca ptr, align 8
  %4 = alloca i32, align 4
  store ptr %0, ptr %3, align 8
  store i32 %1, ptr %4, align 4
  %5 = load ptr, ptr %3, align 8
  %6 = getelementptr inbounds nuw %struct.List, ptr %5, i32 0, i32 3
  %7 = load ptr, ptr %6, align 8
  %8 = load i32, ptr %4, align 4
  %9 = sext i32 %8 to i64
  %10 = getelementptr inbounds %union.ListCell, ptr %7, i64 %9
  ret ptr %10
}

; Function Attrs: nounwind uwtable
define internal ptr @pullup_replace_vars_subquery(ptr noundef %0, ptr noundef %1) #0 {
  %3 = alloca ptr, align 8
  %4 = alloca ptr, align 8
  store ptr %0, ptr %3, align 8
  store ptr %1, ptr %4, align 8
  %5 = load ptr, ptr %3, align 8
  %6 = load ptr, ptr %4, align 8
  %7 = getelementptr inbounds nuw %struct.pullup_replace_vars_context, ptr %6, i32 0, i32 6
  %8 = load i32, ptr %7, align 8
  %9 = load ptr, ptr %4, align 8
  %10 = call ptr @replace_rte_variables(ptr noundef %5, i32 noundef %8, i32 noundef 1, ptr noundef @pullup_replace_vars_callback, ptr noundef %9, ptr noundef null)
  ret ptr %10
}

; Function Attrs: nounwind uwtable
define internal ptr @pullup_replace_vars(ptr noundef %0, ptr noundef %1) #0 {
  %3 = alloca ptr, align 8
  %4 = alloca ptr, align 8
  store ptr %0, ptr %3, align 8
  store ptr %1, ptr %4, align 8
  %5 = load ptr, ptr %3, align 8
  %6 = load ptr, ptr %4, align 8
  %7 = getelementptr inbounds nuw %struct.pullup_replace_vars_context, ptr %6, i32 0, i32 6
  %8 = load i32, ptr %7, align 8
  %9 = load ptr, ptr %4, align 8
  %10 = load ptr, ptr %4, align 8
  %11 = getelementptr inbounds nuw %struct.pullup_replace_vars_context, ptr %10, i32 0, i32 5
  %12 = load ptr, ptr %11, align 8
  %13 = call ptr @replace_rte_variables(ptr noundef %5, i32 noundef %8, i32 noundef 0, ptr noundef @pullup_replace_vars_callback, ptr noundef %9, ptr noundef %12)
  ret ptr %13
}

; Function Attrs: inlinehint nounwind uwtable
define internal ptr @list_nth(ptr noundef %0, i32 noundef %1) #3 {
  %3 = alloca ptr, align 8
  %4 = alloca i32, align 4
  store ptr %0, ptr %3, align 8
  store i32 %1, ptr %4, align 4
  %5 = load ptr, ptr %3, align 8
  %6 = load i32, ptr %4, align 4
  %7 = call ptr @list_nth_cell(ptr noundef %5, i32 noundef %6)
  %8 = load ptr, ptr %7, align 8
  ret ptr %8
}

; Function Attrs: nounwind uwtable
define internal void @replace_vars_in_jointree(ptr noundef %0, ptr noundef %1) #0 {
  %3 = alloca ptr, align 8
  %4 = alloca ptr, align 8
  %5 = alloca i32, align 4
  %6 = alloca ptr, align 8
  %7 = alloca ptr, align 8
  %8 = alloca ptr, align 8
  %9 = alloca %struct.ForEachState, align 8
  %10 = alloca ptr, align 8
  %11 = alloca i8, align 1
  store ptr %0, ptr %3, align 8
  store ptr %1, ptr %4, align 8
  %12 = load ptr, ptr %3, align 8
  %13 = icmp eq ptr %12, null
  br i1 %13, label %14, label %15

14:                                               ; preds = %2
  br label %202

15:                                               ; preds = %2
  %16 = load ptr, ptr %3, align 8
  %17 = getelementptr inbounds nuw %struct.Node, ptr %16, i32 0, i32 0
  %18 = load i32, ptr %17, align 4
  %19 = icmp eq i32 %18, 63
  br i1 %19, label %20, label %92

20:                                               ; preds = %15
  call void @llvm.lifetime.start.p0(i64 4, ptr %5) #8
  %21 = load ptr, ptr %3, align 8
  %22 = getelementptr inbounds nuw %struct.RangeTblRef, ptr %21, i32 0, i32 1
  %23 = load i32, ptr %22, align 4
  store i32 %23, ptr %5, align 4
  %24 = load i32, ptr %5, align 4
  %25 = load ptr, ptr %4, align 8
  %26 = getelementptr inbounds nuw %struct.pullup_replace_vars_context, ptr %25, i32 0, i32 6
  %27 = load i32, ptr %26, align 8
  %28 = icmp ne i32 %24, %27
  br i1 %28, label %29, label %91

29:                                               ; preds = %20
  call void @llvm.lifetime.start.p0(i64 8, ptr %6) #8
  %30 = load ptr, ptr %4, align 8
  %31 = getelementptr inbounds nuw %struct.pullup_replace_vars_context, ptr %30, i32 0, i32 0
  %32 = load ptr, ptr %31, align 8
  %33 = getelementptr inbounds nuw %struct.PlannerInfo, ptr %32, i32 0, i32 1
  %34 = load ptr, ptr %33, align 8
  %35 = getelementptr inbounds nuw %struct.Query, ptr %34, i32 0, i32 19
  %36 = load ptr, ptr %35, align 8
  %37 = load i32, ptr %5, align 4
  %38 = sub i32 %37, 1
  %39 = call ptr @list_nth(ptr noundef %36, i32 noundef %38)
  store ptr %39, ptr %6, align 8
  %40 = load ptr, ptr %6, align 8
  %41 = getelementptr inbounds nuw %struct.RangeTblEntry, ptr %40, i32 0, i32 31
  %42 = load i8, ptr %41, align 8, !range !7, !noundef !8
  %43 = trunc i8 %42 to i1
  br i1 %43, label %44, label %90

44:                                               ; preds = %29
  %45 = load ptr, ptr %6, align 8
  %46 = getelementptr inbounds nuw %struct.RangeTblEntry, ptr %45, i32 0, i32 3
  %47 = load i32, ptr %46, align 8
  switch i32 %47, label %89 [
    i32 0, label %48
    i32 1, label %56
    i32 3, label %64
    i32 4, label %72
    i32 5, label %80
    i32 2, label %88
    i32 6, label %88
    i32 7, label %88
    i32 8, label %88
    i32 9, label %88
  ]

48:                                               ; preds = %44
  %49 = load ptr, ptr %6, align 8
  %50 = getelementptr inbounds nuw %struct.RangeTblEntry, ptr %49, i32 0, i32 9
  %51 = load ptr, ptr %50, align 8
  %52 = load ptr, ptr %4, align 8
  %53 = call ptr @pullup_replace_vars(ptr noundef %51, ptr noundef %52)
  %54 = load ptr, ptr %6, align 8
  %55 = getelementptr inbounds nuw %struct.RangeTblEntry, ptr %54, i32 0, i32 9
  store ptr %53, ptr %55, align 8
  br label %89

56:                                               ; preds = %44
  %57 = load ptr, ptr %6, align 8
  %58 = getelementptr inbounds nuw %struct.RangeTblEntry, ptr %57, i32 0, i32 10
  %59 = load ptr, ptr %58, align 8
  %60 = load ptr, ptr %4, align 8
  %61 = call ptr @pullup_replace_vars_subquery(ptr noundef %59, ptr noundef %60)
  %62 = load ptr, ptr %6, align 8
  %63 = getelementptr inbounds nuw %struct.RangeTblEntry, ptr %62, i32 0, i32 10
  store ptr %61, ptr %63, align 8
  br label %89

64:                                               ; preds = %44
  %65 = load ptr, ptr %6, align 8
  %66 = getelementptr inbounds nuw %struct.RangeTblEntry, ptr %65, i32 0, i32 18
  %67 = load ptr, ptr %66, align 8
  %68 = load ptr, ptr %4, align 8
  %69 = call ptr @pullup_replace_vars(ptr noundef %67, ptr noundef %68)
  %70 = load ptr, ptr %6, align 8
  %71 = getelementptr inbounds nuw %struct.RangeTblEntry, ptr %70, i32 0, i32 18
  store ptr %69, ptr %71, align 8
  br label %89

72:                                               ; preds = %44
  %73 = load ptr, ptr %6, align 8
  %74 = getelementptr inbounds nuw %struct.RangeTblEntry, ptr %73, i32 0, i32 20
  %75 = load ptr, ptr %74, align 8
  %76 = load ptr, ptr %4, align 8
  %77 = call ptr @pullup_replace_vars(ptr noundef %75, ptr noundef %76)
  %78 = load ptr, ptr %6, align 8
  %79 = getelementptr inbounds nuw %struct.RangeTblEntry, ptr %78, i32 0, i32 20
  store ptr %77, ptr %79, align 8
  br label %89

80:                                               ; preds = %44
  %81 = load ptr, ptr %6, align 8
  %82 = getelementptr inbounds nuw %struct.RangeTblEntry, ptr %81, i32 0, i32 21
  %83 = load ptr, ptr %82, align 8
  %84 = load ptr, ptr %4, align 8
  %85 = call ptr @pullup_replace_vars(ptr noundef %83, ptr noundef %84)
  %86 = load ptr, ptr %6, align 8
  %87 = getelementptr inbounds nuw %struct.RangeTblEntry, ptr %86, i32 0, i32 21
  store ptr %85, ptr %87, align 8
  br label %89

88:                                               ; preds = %44, %44, %44, %44, %44
  br label %89

89:                                               ; preds = %44, %88, %80, %72, %64, %56, %48
  br label %90

90:                                               ; preds = %89, %29
  call void @llvm.lifetime.end.p0(i64 8, ptr %6) #8
  br label %91

91:                                               ; preds = %90, %20
  call void @llvm.lifetime.end.p0(i64 4, ptr %5) #8
  br label %202

92:                                               ; preds = %15
  %93 = load ptr, ptr %3, align 8
  %94 = getelementptr inbounds nuw %struct.Node, ptr %93, i32 0, i32 0
  %95 = load i32, ptr %94, align 4
  %96 = icmp eq i32 %95, 65
  br i1 %96, label %97, label %147

97:                                               ; preds = %92
  call void @llvm.lifetime.start.p0(i64 8, ptr %7) #8
  %98 = load ptr, ptr %3, align 8
  store ptr %98, ptr %7, align 8
  call void @llvm.lifetime.start.p0(i64 8, ptr %8) #8
  call void @llvm.lifetime.start.p0(i64 16, ptr %9) #8
  %99 = getelementptr inbounds nuw %struct.ForEachState, ptr %9, i32 0, i32 0
  %100 = load ptr, ptr %7, align 8
  %101 = getelementptr inbounds nuw %struct.FromExpr, ptr %100, i32 0, i32 1
  %102 = load ptr, ptr %101, align 8
  store ptr %102, ptr %99, align 8
  %103 = getelementptr inbounds nuw %struct.ForEachState, ptr %9, i32 0, i32 1
  store i32 0, ptr %103, align 8
  %104 = getelementptr i8, ptr %9, i64 12
  call void @llvm.memset.p0.i64(ptr align 4 %104, i8 0, i64 4, i1 false)
  br label %105

105:                                              ; preds = %135, %97
  %106 = getelementptr inbounds nuw %struct.ForEachState, ptr %9, i32 0, i32 0
  %107 = load ptr, ptr %106, align 8
  %108 = icmp ne ptr %107, null
  br i1 %108, label %109, label %126

109:                                              ; preds = %105
  %110 = getelementptr inbounds nuw %struct.ForEachState, ptr %9, i32 0, i32 1
  %111 = load i32, ptr %110, align 8
  %112 = getelementptr inbounds nuw %struct.ForEachState, ptr %9, i32 0, i32 0
  %113 = load ptr, ptr %112, align 8
  %114 = getelementptr inbounds nuw %struct.List, ptr %113, i32 0, i32 1
  %115 = load i32, ptr %114, align 4
  %116 = icmp slt i32 %111, %115
  br i1 %116, label %117, label %126

117:                                              ; preds = %109
  %118 = getelementptr inbounds nuw %struct.ForEachState, ptr %9, i32 0, i32 0
  %119 = load ptr, ptr %118, align 8
  %120 = getelementptr inbounds nuw %struct.List, ptr %119, i32 0, i32 3
  %121 = load ptr, ptr %120, align 8
  %122 = getelementptr inbounds nuw %struct.ForEachState, ptr %9, i32 0, i32 1
  %123 = load i32, ptr %122, align 8
  %124 = sext i32 %123 to i64
  %125 = getelementptr inbounds %union.ListCell, ptr %121, i64 %124
  store ptr %125, ptr %8, align 8
  br label %127

126:                                              ; preds = %109, %105
  store ptr null, ptr %8, align 8
  br label %127

127:                                              ; preds = %126, %117
  %128 = phi i32 [ 1, %117 ], [ 0, %126 ]
  %129 = icmp ne i32 %128, 0
  br i1 %129, label %131, label %130

130:                                              ; preds = %127
  call void @llvm.lifetime.end.p0(i64 16, ptr %9) #8
  br label %139

131:                                              ; preds = %127
  %132 = load ptr, ptr %8, align 8
  %133 = load ptr, ptr %132, align 8
  %134 = load ptr, ptr %4, align 8
  call void @replace_vars_in_jointree(ptr noundef %133, ptr noundef %134)
  br label %135

135:                                              ; preds = %131
  %136 = getelementptr inbounds nuw %struct.ForEachState, ptr %9, i32 0, i32 1
  %137 = load i32, ptr %136, align 8
  %138 = add i32 %137, 1
  store i32 %138, ptr %136, align 8
  br label %105, !llvm.loop !34

139:                                              ; preds = %130
  %140 = load ptr, ptr %7, align 8
  %141 = getelementptr inbounds nuw %struct.FromExpr, ptr %140, i32 0, i32 2
  %142 = load ptr, ptr %141, align 8
  %143 = load ptr, ptr %4, align 8
  %144 = call ptr @pullup_replace_vars(ptr noundef %142, ptr noundef %143)
  %145 = load ptr, ptr %7, align 8
  %146 = getelementptr inbounds nuw %struct.FromExpr, ptr %145, i32 0, i32 2
  store ptr %144, ptr %146, align 8
  call void @llvm.lifetime.end.p0(i64 8, ptr %8) #8
  call void @llvm.lifetime.end.p0(i64 8, ptr %7) #8
  br label %201

147:                                              ; preds = %92
  %148 = load ptr, ptr %3, align 8
  %149 = getelementptr inbounds nuw %struct.Node, ptr %148, i32 0, i32 0
  %150 = load i32, ptr %149, align 4
  %151 = icmp eq i32 %150, 64
  br i1 %151, label %152, label %187

152:                                              ; preds = %147
  call void @llvm.lifetime.start.p0(i64 8, ptr %10) #8
  %153 = load ptr, ptr %3, align 8
  store ptr %153, ptr %10, align 8
  call void @llvm.lifetime.start.p0(i64 1, ptr %11) #8
  %154 = load ptr, ptr %4, align 8
  %155 = getelementptr inbounds nuw %struct.pullup_replace_vars_context, ptr %154, i32 0, i32 7
  %156 = load i8, ptr %155, align 4, !range !7, !noundef !8
  %157 = trunc i8 %156 to i1
  %158 = zext i1 %157 to i8
  store i8 %158, ptr %11, align 1
  %159 = load ptr, ptr %10, align 8
  %160 = getelementptr inbounds nuw %struct.JoinExpr, ptr %159, i32 0, i32 3
  %161 = load ptr, ptr %160, align 8
  %162 = load ptr, ptr %4, align 8
  call void @replace_vars_in_jointree(ptr noundef %161, ptr noundef %162)
  %163 = load ptr, ptr %10, align 8
  %164 = getelementptr inbounds nuw %struct.JoinExpr, ptr %163, i32 0, i32 4
  %165 = load ptr, ptr %164, align 8
  %166 = load ptr, ptr %4, align 8
  call void @replace_vars_in_jointree(ptr noundef %165, ptr noundef %166)
  %167 = load ptr, ptr %10, align 8
  %168 = getelementptr inbounds nuw %struct.JoinExpr, ptr %167, i32 0, i32 1
  %169 = load i32, ptr %168, align 4
  %170 = icmp eq i32 %169, 2
  br i1 %170, label %171, label %174

171:                                              ; preds = %152
  %172 = load ptr, ptr %4, align 8
  %173 = getelementptr inbounds nuw %struct.pullup_replace_vars_context, ptr %172, i32 0, i32 7
  store i8 1, ptr %173, align 4
  br label %174

174:                                              ; preds = %171, %152
  %175 = load ptr, ptr %10, align 8
  %176 = getelementptr inbounds nuw %struct.JoinExpr, ptr %175, i32 0, i32 7
  %177 = load ptr, ptr %176, align 8
  %178 = load ptr, ptr %4, align 8
  %179 = call ptr @pullup_replace_vars(ptr noundef %177, ptr noundef %178)
  %180 = load ptr, ptr %10, align 8
  %181 = getelementptr inbounds nuw %struct.JoinExpr, ptr %180, i32 0, i32 7
  store ptr %179, ptr %181, align 8
  %182 = load i8, ptr %11, align 1, !range !7, !noundef !8
  %183 = trunc i8 %182 to i1
  %184 = load ptr, ptr %4, align 8
  %185 = getelementptr inbounds nuw %struct.pullup_replace_vars_context, ptr %184, i32 0, i32 7
  %186 = zext i1 %183 to i8
  store i8 %186, ptr %185, align 4
  call void @llvm.lifetime.end.p0(i64 1, ptr %11) #8
  call void @llvm.lifetime.end.p0(i64 8, ptr %10) #8
  br label %200

187:                                              ; preds = %147
  br label %188

188:                                              ; preds = %187
  br i1 true, label %189, label %191

189:                                              ; preds = %188
  %190 = call zeroext i1 @errstart_cold(i32 noundef 21, ptr noundef null) #9
  br i1 %190, label %193, label %198

191:                                              ; preds = %188
  %192 = call zeroext i1 @errstart(i32 noundef 21, ptr noundef null)
  br i1 %192, label %193, label %198

193:                                              ; preds = %191, %189
  %194 = load ptr, ptr %3, align 8
  %195 = getelementptr inbounds nuw %struct.Node, ptr %194, i32 0, i32 0
  %196 = load i32, ptr %195, align 4
  %197 = call i32 (ptr, ...) @errmsg_internal(ptr noundef @.str.5, i32 noundef %196)
  call void @errfinish(ptr noundef @.str.2, i32 noundef 2465, ptr noundef @__func__.replace_vars_in_jointree)
  br label %198

198:                                              ; preds = %193, %191, %189
  unreachable

199:                                              ; No predecessors!
  br label %200

200:                                              ; preds = %199, %174
  br label %201

201:                                              ; preds = %200, %139
  br label %202

202:                                              ; preds = %14, %201, %91
  ret void
}