; Function Attrs: nounwind uwtable
define internal fastcc void @replace_vars_in_jointree(ptr noundef captures(address_is_null) %0, ptr noundef nonnull %1) unnamed_addr #0 {
  %3 = icmp eq ptr %0, null
  br i1 %3, label %99, label %4

4:                                                ; preds = %2
  %5 = load i32, ptr %0, align 4
  switch i32 %5, label %95 [
    i32 63, label %6
    i32 65, label %56
    i32 64, label %76
  ]

6:                                                ; preds = %4
  %7 = getelementptr inbounds nuw i8, ptr %0, i64 4
  %8 = load i32, ptr %7, align 4
  %9 = getelementptr inbounds nuw i8, ptr %1, i64 48
  %10 = load i32, ptr %9, align 8
  %.not55 = icmp eq i32 %8, %10
  br i1 %.not55, label %99, label %11

11:                                               ; preds = %6
  %12 = load ptr, ptr %1, align 8
  %13 = getelementptr inbounds nuw i8, ptr %12, i64 8
  %14 = load ptr, ptr %13, align 8
  %15 = getelementptr inbounds nuw i8, ptr %14, i64 64
  %16 = load ptr, ptr %15, align 8
  %17 = add i32 %8, -1
  %18 = getelementptr i8, ptr %16, i64 16
  %.val = load ptr, ptr %18, align 8
  %19 = sext i32 %17 to i64
  %20 = getelementptr inbounds %union.ListCell, ptr %.val, i64 %19
  %21 = load ptr, ptr %20, align 8
  %22 = getelementptr inbounds nuw i8, ptr %21, i64 208
  %23 = load i8, ptr %22, align 8, !range !4, !noundef !5
  %24 = trunc nuw i8 %23 to i1
  br i1 %24, label %25, label %99

25:                                               ; preds = %11
  %26 = getelementptr inbounds nuw i8, ptr %21, i64 24
  %27 = load i32, ptr %26, align 8
  switch i32 %27, label %99 [
    i32 0, label %28
    i32 1, label %34
    i32 3, label %38
    i32 4, label %44
    i32 5, label %50
  ]

28:                                               ; preds = %25
  %29 = getelementptr inbounds nuw i8, ptr %21, i64 48
  %30 = load ptr, ptr %29, align 8
  %31 = getelementptr inbounds nuw i8, ptr %1, i64 40
  %32 = load ptr, ptr %31, align 8
  %33 = tail call ptr @replace_rte_variables(ptr noundef %30, i32 noundef %10, i32 noundef 0, ptr noundef nonnull @pullup_replace_vars_callback, ptr noundef nonnull %1, ptr noundef %32) #7
  store ptr %33, ptr %29, align 8
  br label %99

34:                                               ; preds = %25
  %35 = getelementptr inbounds nuw i8, ptr %21, i64 56
  %36 = load ptr, ptr %35, align 8
  %37 = tail call ptr @replace_rte_variables(ptr noundef %36, i32 noundef %10, i32 noundef 1, ptr noundef nonnull @pullup_replace_vars_callback, ptr noundef nonnull %1, ptr noundef null) #7
  store ptr %37, ptr %35, align 8
  br label %99

38:                                               ; preds = %25
  %39 = getelementptr inbounds nuw i8, ptr %21, i64 112
  %40 = load ptr, ptr %39, align 8
  %41 = getelementptr inbounds nuw i8, ptr %1, i64 40
  %42 = load ptr, ptr %41, align 8
  %43 = tail call ptr @replace_rte_variables(ptr noundef %40, i32 noundef %10, i32 noundef 0, ptr noundef nonnull @pullup_replace_vars_callback, ptr noundef nonnull %1, ptr noundef %42) #7
  store ptr %43, ptr %39, align 8
  br label %99

44:                                               ; preds = %25
  %45 = getelementptr inbounds nuw i8, ptr %21, i64 128
  %46 = load ptr, ptr %45, align 8
  %47 = getelementptr inbounds nuw i8, ptr %1, i64 40
  %48 = load ptr, ptr %47, align 8
  %49 = tail call ptr @replace_rte_variables(ptr noundef %46, i32 noundef %10, i32 noundef 0, ptr noundef nonnull @pullup_replace_vars_callback, ptr noundef nonnull %1, ptr noundef %48) #7
  store ptr %49, ptr %45, align 8
  br label %99

50:                                               ; preds = %25
  %51 = getelementptr inbounds nuw i8, ptr %21, i64 136
  %52 = load ptr, ptr %51, align 8
  %53 = getelementptr inbounds nuw i8, ptr %1, i64 40
  %54 = load ptr, ptr %53, align 8
  %55 = tail call ptr @replace_rte_variables(ptr noundef %52, i32 noundef %10, i32 noundef 0, ptr noundef nonnull @pullup_replace_vars_callback, ptr noundef nonnull %1, ptr noundef %54) #7
  store ptr %55, ptr %51, align 8
  br label %99

56:                                               ; preds = %4
  %57 = getelementptr inbounds nuw i8, ptr %0, i64 8
  %58 = load ptr, ptr %57, align 8
  %59 = getelementptr inbounds nuw i8, ptr %58, i64 4
  %.not = icmp eq ptr %58, null
  br i1 %.not, label %._crit_edge, label %.lr.ph

.lr.ph:                                           ; preds = %56
  %60 = getelementptr inbounds nuw i8, ptr %58, i64 16
  %61 = load i32, ptr %59, align 4
  %62 = icmp sgt i32 %61, 0
  br i1 %62, label %.lr.ph61, label %._crit_edge

._crit_edge:                                      ; preds = %.lr.ph61, %.lr.ph, %56
  %63 = getelementptr inbounds nuw i8, ptr %0, i64 16
  %64 = load ptr, ptr %63, align 8
  %65 = getelementptr inbounds nuw i8, ptr %1, i64 48
  %66 = load i32, ptr %65, align 8
  %67 = getelementptr inbounds nuw i8, ptr %1, i64 40
  %68 = load ptr, ptr %67, align 8
  %69 = tail call ptr @replace_rte_variables(ptr noundef %64, i32 noundef %66, i32 noundef 0, ptr noundef nonnull @pullup_replace_vars_callback, ptr noundef nonnull %1, ptr noundef %68) #7
  store ptr %69, ptr %63, align 8
  br label %99

.lr.ph61:                                         ; preds = %.lr.ph, %.lr.ph61
  %indvars.iv = phi i64 [ %indvars.iv.next, %.lr.ph61 ], [ 0, %.lr.ph ]
  %70 = load ptr, ptr %60, align 8
  %71 = getelementptr inbounds nuw %union.ListCell, ptr %70, i64 %indvars.iv
  %72 = load ptr, ptr %71, align 8
  tail call fastcc void @replace_vars_in_jointree(ptr noundef %72, ptr noundef %1)
  %indvars.iv.next = add nuw nsw i64 %indvars.iv, 1
  %73 = load i32, ptr %59, align 4
  %74 = sext i32 %73 to i64
  %75 = icmp slt i64 %indvars.iv.next, %74
  br i1 %75, label %.lr.ph61, label %._crit_edge

76:                                               ; preds = %4
  %77 = getelementptr inbounds nuw i8, ptr %1, i64 52
  %78 = load i8, ptr %77, align 4, !range !4, !noundef !5
  %79 = getelementptr inbounds nuw i8, ptr %0, i64 16
  %80 = load ptr, ptr %79, align 8
  tail call fastcc void @replace_vars_in_jointree(ptr noundef %80, ptr noundef %1)
  %81 = getelementptr inbounds nuw i8, ptr %0, i64 24
  %82 = load ptr, ptr %81, align 8
  tail call fastcc void @replace_vars_in_jointree(ptr noundef %82, ptr noundef %1)
  %83 = getelementptr inbounds nuw i8, ptr %0, i64 4
  %84 = load i32, ptr %83, align 4
  %85 = icmp eq i32 %84, 2
  br i1 %85, label %86, label %87

86:                                               ; preds = %76
  store i8 1, ptr %77, align 4
  br label %87

87:                                               ; preds = %86, %76
  %88 = getelementptr inbounds nuw i8, ptr %0, i64 48
  %89 = load ptr, ptr %88, align 8
  %90 = getelementptr inbounds nuw i8, ptr %1, i64 48
  %91 = load i32, ptr %90, align 8
  %92 = getelementptr inbounds nuw i8, ptr %1, i64 40
  %93 = load ptr, ptr %92, align 8
  %94 = tail call ptr @replace_rte_variables(ptr noundef %89, i32 noundef %91, i32 noundef 0, ptr noundef nonnull @pullup_replace_vars_callback, ptr noundef nonnull %1, ptr noundef %93) #7
  store ptr %94, ptr %88, align 8
  store i8 %78, ptr %77, align 4
  br label %99

95:                                               ; preds = %4
  %96 = tail call zeroext i1 @errstart_cold(i32 noundef 21, ptr noundef null) #8
  tail call void @llvm.assume(i1 %96)
  %97 = load i32, ptr %0, align 4
  %98 = tail call i32 (ptr, ...) @errmsg_internal(ptr noundef nonnull @.str.5, i32 noundef %97) #7
  tail call void @errfinish(ptr noundef nonnull @.str.2, i32 noundef 2465, ptr noundef nonnull @__func__.replace_vars_in_jointree) #7
  unreachable

99:                                               ; preds = %6, %25, %28, %34, %38, %44, %50, %11, %._crit_edge, %87, %2
  ret void
}